target datalayout = "e-m:e-p270:32:32-p271:32:32-p272:64:64-i64:64-i128:128-f80:128-n8:16:32:64-S128"
target triple = "x86_64-pc-linux-gnu"

%class.ObjectDescriptionBuilder = type { [100 x i8], i64 }
%class.ObjectSampleDescription = type { [8 x i8], %class.ObjectDescriptionBuilder, ptr }

@.str.4 = private unnamed_addr constant [3 x i8] c"%s\00", align 1
@_ZL11symbol_size = internal global ptr null, align 8
@.str.5 = private unnamed_addr constant [5 x i8] c"size\00", align 1

; Function Attrs: mustprogress nounwind uwtable
define hidden void @_ZN24ObjectDescriptionBuilder5resetEv(ptr noundef nonnull align 8 dereferenceable(112) %0) #1 align 2 {
  %2 = alloca ptr, align 8
  store ptr %0, ptr %2, align 8
  %3 = load ptr, ptr %2, align 8
  %4 = getelementptr inbounds %class.ObjectDescriptionBuilder, ptr %3, i32 0, i32 1
  store i64 0, ptr %4, align 8
  %5 = getelementptr inbounds %class.ObjectDescriptionBuilder, ptr %3, i32 0, i32 0
  %6 = getelementptr inbounds [100 x i8], ptr %5, i64 0, i64 0
  store i8 0, ptr %6, align 8
  ret void
}

; Function Attrs: mustprogress nounwind uwtable
define hidden void @_ZN23ObjectSampleDescription18ensure_initializedEv(ptr noundef nonnull align 8 dereferenceable(128) %0) #1 align 2 {
  %2 = alloca ptr, align 8
  store ptr %0, ptr %2, align 8
  %3 = load ptr, ptr @_ZL11symbol_size, align 8
  %4 = icmp eq ptr %3, null
  br i1 %4, label %5, label %7

5:                                                ; preds = %1
  %6 = call noundef ptr @_ZN11SymbolTable20new_permanent_symbolEPKc(ptr noundef @.str.5)
  store ptr %6, ptr @_ZL11symbol_size, align 8
  br label %7

7:                                                ; preds = %5, %1
  ret void
}

; Function Attrs: mustprogress nounwind uwtable
define hidden void @_ZN24ObjectDescriptionBuilder17print_descriptionEP12outputStream(ptr noundef nonnull align 8 dereferenceable(112) %0, ptr noundef %1) #1 align 2 {
  %3 = alloca ptr, align 8
  %4 = alloca ptr, align 8
  store ptr %0, ptr %3, align 8
  store ptr %1, ptr %4, align 8
  %5 = load ptr, ptr %3, align 8
  %6 = load ptr, ptr %4, align 8
  %7 = getelementptr inbounds %class.ObjectDescriptionBuilder, ptr %5, i32 0, i32 0
  %8 = getelementptr inbounds [100 x i8], ptr %7, i64 0, i64 0
  call void (ptr, ptr, ...) @_ZN12outputStream5printEPKcz(ptr noundef nonnull align 8 dereferenceable(56) %6, ptr noundef @.str.4, ptr noundef %8)
  ret void
}

; Function Attrs: mustprogress nounwind uwtable
define hidden void @_ZN23ObjectSampleDescription22write_object_to_bufferEv(ptr noundef nonnull align 8 dereferenceable(128) %0) #1 align 2 {
  %2 = alloca ptr, align 8
  store ptr %0, ptr %2, align 8
  %3 = load ptr, ptr %2, align 8
  call void @_ZN23ObjectSampleDescription18ensure_initializedEv(ptr noundef nonnull align 8 dereferenceable(128) %3)
  %4 = getelementptr inbounds %class.ObjectSampleDescription, ptr %3, i32 0, i32 1
  call void @_ZN24ObjectDescriptionBuilder5resetEv(ptr noundef nonnull align 8 dereferenceable(112) %4)
  call void @_ZN23ObjectSampleDescription20write_object_detailsEv(ptr noundef nonnull align 8 dereferenceable(128) %3)
  ret void
}

; Function Attrs: mustprogress nounwind uwtable
define hidden void @_ZN23ObjectSampleDescription17print_descriptionEP12outputStream(ptr noundef nonnull align 8 dereferenceable(128) %0, ptr noundef %1) #1 align 2 {
  %3 = alloca ptr, align 8
  %4 = alloca ptr, align 8
  store ptr %0, ptr %3, align 8
  store ptr %1, ptr %4, align 8
  %5 = load ptr, ptr %3, align 8
  call void @_ZN23ObjectSampleDescription22write_object_to_bufferEv(ptr noundef nonnull align 8 dereferenceable(128) %5)
  %6 = getelementptr inbounds %class.ObjectSampleDescription, ptr %5, i32 0, i32 1
  %7 = load ptr, ptr %4, align 8
  call void @_ZN24ObjectDescriptionBuilder17print_descriptionEP12outputStream(ptr noundef nonnull align 8 dereferenceable(112) %6, ptr noundef %7)
  ret void
}