; Function Attrs: mustprogress nounwind uwtable
define hidden void @_ZN23ObjectSampleDescription17print_descriptionEP12outputStream(ptr noundef nonnull align 8 dereferenceable(128) %0, ptr noundef %1) local_unnamed_addr #1 align 2 {
  %3 = load ptr, ptr @_ZL11symbol_size, align 8
  %4 = icmp eq ptr %3, null
  br i1 %4, label %5, label %_ZN23ObjectSampleDescription22write_object_to_bufferEv.exit

5:                                                ; preds = %2
  %6 = tail call noundef ptr @_ZN11SymbolTable20new_permanent_symbolEPKc(ptr noundef nonnull @.str.5) #10
  store ptr %6, ptr @_ZL11symbol_size, align 8
  br label %_ZN23ObjectSampleDescription22write_object_to_bufferEv.exit

_ZN23ObjectSampleDescription22write_object_to_bufferEv.exit: ; preds = %2, %5
  %7 = getelementptr inbounds i8, ptr %0, i64 8
  %8 = getelementptr inbounds i8, ptr %0, i64 112
  store i64 0, ptr %8, align 8
  store i8 0, ptr %7, align 8
  tail call void @_ZN23ObjectSampleDescription20write_object_detailsEv(ptr noundef nonnull align 8 dereferenceable(128) %0)
  tail call void (ptr, ptr, ...) @_ZN12outputStream5printEPKcz(ptr noundef nonnull align 8 dereferenceable(56) %1, ptr noundef nonnull @.str.4, ptr noundef nonnull %7) #10
  ret void
}